target datalayout = "e-m:e-p270:32:32-p271:32:32-p272:64:64-i64:64-i128:128-f80:128-n8:16:32:64-S128"
target triple = "x86_64-pc-linux-gnu"

%union.SDL_Event = type { %struct.SDL_MouseWheelEvent, [72 x i8] }
%struct.SDL_MouseWheelEvent = type { i32, i32, i64, i32, i32, float, float, i32, float, float, i32, i32 }
%struct.SDL_CommonEvent = type { i32, i32, i64 }
%struct.SDL_GamepadDeviceEvent = type { i32, i32, i64, i32 }

@SDL_gamepads_initialized = internal global i8 0, align 1

; Function Attrs: nounwind uwtable
define hidden void @SDL_PrivateGamepadAdded(i32 noundef %0) #0 {
  %2 = alloca i32, align 4
  %3 = alloca %union.SDL_Event, align 8
  %4 = alloca i32, align 4
  store i32 %0, ptr %2, align 4
  call void @llvm.lifetime.start.p0(i64 128, ptr %3) #8
  %5 = load i8, ptr @SDL_gamepads_initialized, align 1, !range !3, !noundef !4
  %6 = trunc i8 %5 to i1
  br i1 %6, label %8, label %7

7:                                                ; preds = %1
  store i32 1, ptr %4, align 4
  br label %13

8:                                                ; preds = %1
  store i32 1619, ptr %3, align 8
  %9 = getelementptr inbounds nuw %struct.SDL_CommonEvent, ptr %3, i32 0, i32 2
  store i64 0, ptr %9, align 8
  %10 = load i32, ptr %2, align 4
  %11 = getelementptr inbounds nuw %struct.SDL_GamepadDeviceEvent, ptr %3, i32 0, i32 3
  store i32 %10, ptr %11, align 8
  %12 = call zeroext i1 @SDL_PushEvent_REAL(ptr noundef %3)
  store i32 0, ptr %4, align 4
  br label %13

13:                                               ; preds = %8, %7
  call void @llvm.lifetime.end.p0(i64 128, ptr %3) #8
  %14 = load i32, ptr %4, align 4
  switch i32 %14, label %16 [
    i32 0, label %15
    i32 1, label %15
  ]

15:                                               ; preds = %13, %13
  ret void

16:                                               ; preds = %13
  unreachable
}