; Function Attrs: nounwind uwtable
define hidden void @SDL_PrivateGamepadAdded(i32 noundef %0) local_unnamed_addr #0 {
  %2 = alloca %union.SDL_Event, align 8
  call void @llvm.lifetime.start.p0(i64 128, ptr nonnull %2) #10
  %.b1 = load i1, ptr @SDL_gamepads_initialized, align 1
  br i1 %.b1, label %3, label %7

3:                                                ; preds = %1
  store i32 1619, ptr %2, align 8
  %4 = getelementptr inbounds nuw i8, ptr %2, i64 8
  store i64 0, ptr %4, align 8
  %5 = getelementptr inbounds nuw i8, ptr %2, i64 16
  store i32 %0, ptr %5, align 8
  %6 = call zeroext i1 @SDL_PushEvent_REAL(ptr noundef nonnull %2) #10
  br label %7

7:                                                ; preds = %1, %3
  call void @llvm.lifetime.end.p0(i64 128, ptr nonnull %2) #10
  ret void
}